target datalayout = "e-m:e-p270:32:32-p271:32:32-p272:64:64-i64:64-i128:128-f80:128-n8:16:32:64-S128"
target triple = "x86_64-unknown-linux-gnu"

%"class.sat::literal" = type { i32 }
%"struct.bv::solver::bv_justification" = type { i32, i32, i32, i32, %"class.sat::literal", %"class.sat::literal", ptr, ptr, ptr }
%"class.sat::constraint_base" = type { ptr, [0 x i32] }

; Function Attrs: mustprogress uwtable
define linkonce_odr hidden noundef ptr @_ZN3sat15constraint_base12mem2base_ptrEPKv(ptr noundef %mem) #5 comdat align 2 {
entry:
  %mem.addr = alloca ptr, align 8
  store ptr %mem, ptr %mem.addr, align 8
  %0 = load ptr, ptr %mem.addr, align 8
  %call = call noundef i64 @_ZN3sat15constraint_base8ext_sizeEv()
  %idx.neg = sub i64 0, %call
  %add.ptr = getelementptr inbounds i8, ptr %0, i64 %idx.neg
  ret ptr %add.ptr
}

; Function Attrs: mustprogress uwtable
define linkonce_odr hidden noundef i64 @_ZN3sat15constraint_base8mem2baseEPKv(ptr noundef %mem) #5 comdat align 2 {
entry:
  %mem.addr = alloca ptr, align 8
  store ptr %mem, ptr %mem.addr, align 8
  %0 = load ptr, ptr %mem.addr, align 8
  %call = call noundef ptr @_ZN3sat15constraint_base12mem2base_ptrEPKv(ptr noundef %0)
  %1 = ptrtoint ptr %call to i64
  ret i64 %1
}

; Function Attrs: mustprogress nounwind uwtable
define linkonce_odr hidden void @_ZN3sat7literalC2Ev(ptr noundef nonnull align 4 dereferenceable(4) %this) unnamed_addr #4 comdat align 2 {
entry:
  %this.addr = alloca ptr, align 8
  store ptr %this, ptr %this.addr, align 8
  %this1 = load ptr, ptr %this.addr, align 8
  %m_val = getelementptr inbounds %"class.sat::literal", ptr %this1, i32 0, i32 0
  store i32 -2, ptr %m_val, align 4
  ret void
}

; Function Attrs: mustprogress nounwind uwtable
define linkonce_odr hidden noundef i64 @_ZN3sat15constraint_base8ext_sizeEv() #4 comdat align 2 {
entry:
  ret i64 8
}

; Function Attrs: mustprogress nounwind uwtable
define linkonce_odr hidden noundef i64 @_ZN3sat15constraint_base8obj_sizeEm(i64 noundef %sz) #4 comdat align 2 {
entry:
  %sz.addr = alloca i64, align 8
  store i64 %sz, ptr %sz.addr, align 8
  %call = call noundef i64 @_ZN3sat15constraint_base8ext_sizeEv()
  %0 = load i64, ptr %sz.addr, align 8
  %add = add i64 %call, %0
  ret i64 %add
}

; Function Attrs: mustprogress uwtable
define linkonce_odr hidden noundef i64 @_ZNK2bv6solver16bv_justification8to_indexEv(ptr noundef nonnull align 8 dereferenceable(48) %this) #5 comdat align 2 {
entry:
  %this.addr = alloca ptr, align 8
  store ptr %this, ptr %this.addr, align 8
  %this1 = load ptr, ptr %this.addr, align 8
  %call = call noundef i64 @_ZN3sat15constraint_base8mem2baseEPKv(ptr noundef %this1)
  ret i64 %call
}

; Function Attrs: mustprogress uwtable
define linkonce_odr hidden void @_ZN2bv6solver16bv_justificationC2Eii(ptr noundef nonnull align 8 dereferenceable(48) %this, i32 noundef %v1, i32 noundef %v2) unnamed_addr #5 comdat align 2 {
entry:
  %this.addr = alloca ptr, align 8
  %v1.addr = alloca i32, align 4
  %v2.addr = alloca i32, align 4
  store ptr %this, ptr %this.addr, align 8
  store i32 %v1, ptr %v1.addr, align 4
  store i32 %v2, ptr %v2.addr, align 4
  %this1 = load ptr, ptr %this.addr, align 8
  %m_kind = getelementptr inbounds %"struct.bv::solver::bv_justification", ptr %this1, i32 0, i32 0
  store i32 2, ptr %m_kind, align 8
  %m_idx = getelementptr inbounds %"struct.bv::solver::bv_justification", ptr %this1, i32 0, i32 1
  store i32 -1, ptr %m_idx, align 4
  %m_v1 = getelementptr inbounds %"struct.bv::solver::bv_justification", ptr %this1, i32 0, i32 2
  %0 = load i32, ptr %v1.addr, align 4
  store i32 %0, ptr %m_v1, align 8
  %m_v2 = getelementptr inbounds %"struct.bv::solver::bv_justification", ptr %this1, i32 0, i32 3
  %1 = load i32, ptr %v2.addr, align 4
  store i32 %1, ptr %m_v2, align 4
  %m_consequent = getelementptr inbounds %"struct.bv::solver::bv_justification", ptr %this1, i32 0, i32 4
  call void @_ZN3sat7literalC2Ev(ptr noundef nonnull align 4 dereferenceable(4) %m_consequent)
  %m_antecedent = getelementptr inbounds %"struct.bv::solver::bv_justification", ptr %this1, i32 0, i32 5
  call void @_ZN3sat7literalC2Ev(ptr noundef nonnull align 4 dereferenceable(4) %m_antecedent)
  ret void
}

; Function Attrs: mustprogress nounwind uwtable
define linkonce_odr hidden noundef ptr @_ZN3sat15constraint_base7ptr2memEPv(ptr noundef %ptr) #4 comdat align 2 {
entry:
  %ptr.addr = alloca ptr, align 8
  store ptr %ptr, ptr %ptr.addr, align 8
  %0 = load ptr, ptr %ptr.addr, align 8
  %call = call noundef i64 @_ZN3sat15constraint_base8ext_sizeEv()
  %add.ptr = getelementptr inbounds i8, ptr %0, i64 %call
  ret ptr %add.ptr
}

; Function Attrs: mustprogress nounwind uwtable
define linkonce_odr hidden void @_ZN3sat15constraint_base10initializeEPvPNS_9extensionE(ptr noundef %ptr, ptr noundef %ext) #4 comdat align 2 {
entry:
  %ptr.addr = alloca ptr, align 8
  %ext.addr = alloca ptr, align 8
  store ptr %ptr, ptr %ptr.addr, align 8
  store ptr %ext, ptr %ext.addr, align 8
  %0 = load ptr, ptr %ext.addr, align 8
  %1 = load ptr, ptr %ptr.addr, align 8
  %m_ex = getelementptr inbounds %"class.sat::constraint_base", ptr %1, i32 0, i32 0
  store ptr %0, ptr %m_ex, align 8
  ret void
}

; Function Attrs: mustprogress uwtable
define linkonce_odr hidden noundef i64 @_ZN2bv6solver16bv_justification12get_obj_sizeEv() #5 comdat align 2 {
entry:
  %call = call noundef i64 @_ZN3sat15constraint_base8obj_sizeEm(i64 noundef 48)
  ret i64 %call
}

; Function Attrs: mustprogress uwtable
define hidden noundef i64 @_ZN2bv6solver23mk_bit2eq_justificationEii(ptr noundef nonnull align 8 dereferenceable(640) %this, i32 noundef %v1, i32 noundef %v2) #5 align 2 {
entry:
  %this.addr = alloca ptr, align 8
  %v1.addr = alloca i32, align 4
  %v2.addr = alloca i32, align 4
  %mem = alloca ptr, align 8
  %constraint = alloca ptr, align 8
  %jst = alloca i64, align 8
  store ptr %this, ptr %this.addr, align 8
  store i32 %v1, ptr %v1.addr, align 4
  store i32 %v2, ptr %v2.addr, align 4
  %this1 = load ptr, ptr %this.addr, align 8
  %call = call noundef nonnull align 8 dereferenceable(40) ptr @_ZN3euf13th_euf_solver10get_regionEv(ptr noundef nonnull align 8 dereferenceable(108) %this1)
  %call2 = call noundef i64 @_ZN2bv6solver16bv_justification12get_obj_sizeEv()
  %call3 = call noundef ptr @_ZN6region8allocateEm(ptr noundef nonnull align 8 dereferenceable(40) %call, i64 noundef %call2)
  store ptr %call3, ptr %mem, align 8
  %0 = load ptr, ptr %mem, align 8
  call void @_ZN3sat15constraint_base10initializeEPvPNS_9extensionE(ptr noundef %0, ptr noundef %this1)
  %1 = load ptr, ptr %mem, align 8
  %call4 = call noundef ptr @_ZN3sat15constraint_base7ptr2memEPv(ptr noundef %1)
  %2 = load i32, ptr %v1.addr, align 4
  %3 = load i32, ptr %v2.addr, align 4
  call void @_ZN2bv6solver16bv_justificationC2Eii(ptr noundef nonnull align 8 dereferenceable(48) %call4, i32 noundef %2, i32 noundef %3)
  store ptr %call4, ptr %constraint, align 8
  %4 = load ptr, ptr %constraint, align 8
  %call5 = call noundef i64 @_ZNK2bv6solver16bv_justification8to_indexEv(ptr noundef nonnull align 8 dereferenceable(48) %4)
  store i64 %call5, ptr %jst, align 8
  %5 = load i64, ptr %jst, align 8
  ret i64 %5
}