; Function Attrs: mustprogress uwtable
define hidden noundef i64 @_ZN2bv6solver23mk_bit2eq_justificationEii(ptr noundef nonnull align 8 dereferenceable(640) %this, i32 noundef %v1, i32 noundef %v2) local_unnamed_addr #3 align 2 {
entry:
  %call = tail call noundef nonnull align 8 dereferenceable(40) ptr @_ZN3euf13th_euf_solver10get_regionEv(ptr noundef nonnull align 8 dereferenceable(108) %this)
  %call3 = tail call noundef ptr @_ZN6region8allocateEm(ptr noundef nonnull align 8 dereferenceable(40) %call, i64 noundef 56)
  store ptr %this, ptr %call3, align 8
  %add.ptr.i = getelementptr inbounds i8, ptr %call3, i64 8
  store i32 2, ptr %add.ptr.i, align 8
  %m_idx.i = getelementptr inbounds i8, ptr %call3, i64 12
  store i32 -1, ptr %m_idx.i, align 4
  %m_v1.i = getelementptr inbounds i8, ptr %call3, i64 16
  store i32 %v1, ptr %m_v1.i, align 8
  %m_v2.i = getelementptr inbounds i8, ptr %call3, i64 20
  store i32 %v2, ptr %m_v2.i, align 4
  %m_consequent.i = getelementptr inbounds i8, ptr %call3, i64 24
  store i32 -2, ptr %m_consequent.i, align 4
  %m_antecedent.i = getelementptr inbounds i8, ptr %call3, i64 28
  store i32 -2, ptr %m_antecedent.i, align 4
  %0 = ptrtoint ptr %call3 to i64
  ret i64 %0
}